Certificate:
    Data:
        Version: 3 (0x2)
        Serial Number: 4096 (0x1000)
        Signature Algorithm: md5WithRSAEncryption
        Issuer: C=AU, ST=Some-State, O=Internet Widgits Pty Ltd, CN=gk
        Validity
            Not Before: Mar 26 01:45:58 2021 GMT
            Not After : Mar 26 01:45:58 2022 GMT
        Subject: C=AU, ST=Some-State, O=Internet Widgits Pty Ltd, CN=server
        Subject Public Key Info:
            Public Key Algorithm: rsaEncryption
                RSA Public-Key: (4096 bit)
                Modulus:
                    00:a8:65:ea:7e:42:bc:12:1a:32:b8:03:3b:17:23:
                    e7:55:79:89:d3:20:f6:b2:c8:0e:8f:20:ec:20:20:
                    ca:9e:01:7c:80:eb:e1:1e:5c:20:d0:2e:8a:8d:e9:
                    cc:ac:2d:43:20:3f:e6:b0:57:46:ee:ed:93:50:ca:
                    64:75:90:69:9f:86:98:41:4b:b5:3d:32:e3:39:1b:
                    57:65:bd:11:6b:74:aa:e5:cb:03:4e:5b:4e:ac:33:
                    8f:c0:f4:8f:ae:56:7f:8e:dd:1b:a8:c8:a3:c4:e0:
                    f7:21:82:04:09:11:7d:63:0b:20:3d:da:de:2e:a6:
                    20:52:70:5a:c1:22:6a:8a:a3:9b:82:56:89:59:6a:
                    97:77:f8:ab:5c:36:14:9b:84:be:5a:02:fb:fc:96:
                    0d:6d:61:72:ee:dd:ac:af:96:35:c8:45:ba:88:79:
                    4e:41:6e:3d:60:50:13:75:59:af:24:73:8e:8f:9c:
                    23:33:f1:eb:f1:b5:cf:98:75:4c:53:fc:5f:b9:a4:
                    ac:30:3c:80:01:b1:c2:40:6b:67:a6:4a:47:08:7c:
                    6d:0b:40:01:8c:0f:69:2c:f3:ab:6b:11:bf:12:cf:
                    34:d2:f9:f7:92:15:8e:a3:e2:8c:6b:2f:fc:e2:d3:
                    74:c1:14:96:96:68:47:de:ab:e2:98:88:ac:8a:9d:
                    53:8a:dc:5f:96:6d:c8:83:f5:c1:43:63:19:e8:a3:
                    a5:0e:c6:20:2f:51:c6:4a:75:7b:58:d3:5e:34:28:
                    f6:90:25:f5:d6:f4:88:e4:ce:3a:2f:af:26:e0:f6:
                    13:d1:5f:dc:22:2b:08:46:cb:de:28:b3:a7:c7:09:
                    e0:36:d8:42:55:cd:cf:36:d6:1d:b6:b5:69:45:2c:
                    7e:a0:93:d3:60:ec:17:1d:df:09:04:10:b6:4c:d6:
                    f9:f9:b7:83:5c:81:1d:70:47:45:e2:b6:29:29:ec:
                    b5:fd:83:ca:b7:68:16:d1:d8:89:ab:08:38:a7:1d:
                    fd:63:89:e6:35:e4:67:8a:0c:1a:63:71:e6:d5:74:
                    1c:80:90:c7:7b:c7:4e:02:57:d2:d6:c9:9c:d2:a8:
                    b2:5f:af:28:58:62:3b:a5:8a:f5:b6:2a:b3:ab:d6:
                    7f:54:b9:89:b9:ce:a1:f3:a1:ff:cb:9d:a5:e7:ea:
                    29:60:cd:7b:a8:00:dd:98:ab:2e:e0:e8:df:89:b6:
                    bf:13:7c:98:53:f7:ee:22:c9:18:9c:e4:41:4c:ff:
                    6d:c3:d1:aa:d4:57:d0:2a:96:21:87:81:ac:46:d5:
                    59:d2:55:84:be:5f:03:e3:d3:a2:b2:0a:03:31:80:
                    e8:71:e4:61:8e:f3:d9:98:db:6a:72:2f:52:aa:3e:
                    df:03:b9
                Exponent: 65537 (0x10001)
        X509v3 extensions:
            X509v3 Basic Constraints: 
                CA:FALSE
            Netscape Comment: 
                OpenSSL Generated Certificate
            X509v3 Subject Key Identifier: 
                50:36:37:AB:AB:CE:DA:64:9B:79:50:32:B6:67:D7:67:F0:F7:D9:5F
            X509v3 Authority Key Identifier: 
                keyid:74:D9:EB:C2:6C:13:9F:1F:B5:A7:D3:EC:4E:F4:12:76:6D:B4:FC:F4
                DirName:/C=AU/ST=Some-State/O=Internet Widgits Pty Ltd/CN=gk
                serial:44:BA:8D:42:A9:6A:8A:C6:B6:51:6B:CF:86:15:9B:A3:E8:A1:80:BE

    Signature Algorithm: md5WithRSAEncryption
         76:61:a3:74:e8:6d:cd:66:81:be:44:04:4d:37:5f:1f:a9:0c:
         27:39:56:8a:1a:89:1d:96:fb:81:09:68:69:b2:78:2e:92:4d:
         72:8e:c6:db:c9:20:f6:ba:75:21:bd:c3:dc:3e:a8:a1:1a:e9:
         90:47:97:9b:de:58:8b:62:92:68:27:27:0c:dd:63:b1:e3:40:
         3b:35:e2:ba:93:c3:5f:a5:88:ce:2e:df:96:3b:18:59:17:2a:
         df:b0:aa:b2:f6:3b:6a:c8:70:20:e4:75:be:37:28:0d:97:a1:
         ce:0f:b7:c4:4a:d4:ac:49:02:6b:c3:00:9c:70:c1:c4:7b:fd:
         23:1b:46:74:bd:c4:72:26:21:da:a9:50:7b:0e:2c:0d:c0:37:
         10:ac:f1:d5:8b:3f:98:40:af:60:4c:64:12:b2:0d:38:49:b9:
         40:47:9d:d7:b4:b9:04:8d:4f:fa:2f:8f:13:13:82:5a:9d:db:
         be:b7:bd:74:a3:14:ed:75:00:69:8b:6c:ae:bf:73:87:a8:13:
         e7:51:ef:01:1b:24:3a:dd:3f:b9:bc:35:2c:75:94:d0:70:12:
         ee:fa:df:7c:4c:6a:a3:f3:81:a3:35:bc:63:45:72:d4:00:06:
         a4:36:41:f5:b3:8d:f6:db:a4:30:b1:17:eb:b6:bd:2b:13:de:
         b1:d2:a3:0b:9c:38:06:51:e9:34:36:bd:ae:4c:5b:f8:38:c2:
         59:ae:b7:9d:2f:26:c9:6d:9c:71:ea:7d:36:b3:28:9b:08:d4:
         ef:3b:2c:f0:db:6b:02:84:b3:eb:21:81:6f:72:4f:70:0b:62:
         8c:ed:4b:ce:e0:14:50:92:e4:80:ae:1b:6f:73:0b:56:82:e1:
         c7:83:56:53:60:00:7a:a5:f3:10:60:9c:fe:7e:b5:be:19:0b:
         14:66:c7:81:16:85:38:14:5c:00:46:ac:b5:e1:2a:83:18:db:
         e5:73:a3:77:4b:5b:4b:be:49:08:f5:82:4a:d5:7a:d7:19:b8:
         0e:f6:0f:d8:43:4b:0c:cf:fe:f8:6d:c9:fc:a6:2c:f4:03:c9:
         e5:ed:58:e3:b7:d0:f0:50:6d:ba:95:c9:ef:dd:f3:58:4c:d7:
         7b:af:f7:e1:d6:12:d5:c3:07:49:ef:80:c4:75:12:aa:7f:dc:
         e9:e9:8c:cb:c9:8b:0e:5d:98:01:4d:6a:6a:78:ff:ec:19:96:
         36:63:ea:64:c4:55:80:3d:13:ed:28:ec:b5:a7:0b:84:f2:eb:
         63:2b:e9:23:3f:f2:13:ad:52:49:9b:01:36:6e:b6:e7:df:97:
         21:cc:fc:e3:bc:98:eb:a3:d3:28:03:4b:69:d1:3a:31:8f:76:
         22:1d:5a:cc:c6:18:e6:19
-----BEGIN CERTIFICATE-----
MIIGEjCCA/qgAwIBAgICEAAwDQYJKoZIhvcNAQEEBQAwUjELMAkGA1UEBhMCQVUx
EzARBgNVBAgMClNvbWUtU3RhdGUxITAfBgNVBAoMGEludGVybmV0IFdpZGdpdHMg
UHR5IEx0ZDELMAkGA1UEAwwCZ2swHhcNMjEwMzI2MDE0NTU4WhcNMjIwMzI2MDE0
NTU4WjBWMQswCQYDVQQGEwJBVTETMBEGA1UECAwKU29tZS1TdGF0ZTEhMB8GA1UE
CgwYSW50ZXJuZXQgV2lkZ2l0cyBQdHkgTHRkMQ8wDQYDVQQDDAZzZXJ2ZXIwggIi
MA0GCSqGSIb3DQEBAQUAA4ICDwAwggIKAoICAQCoZep+QrwSGjK4AzsXI+dVeYnT
IPayyA6PIOwgIMqeAXyA6+EeXCDQLoqN6cysLUMgP+awV0bu7ZNQymR1kGmfhphB
S7U9MuM5G1dlvRFrdKrlywNOW06sM4/A9I+uVn+O3RuoyKPE4PchggQJEX1jCyA9
2t4upiBScFrBImqKo5uCVolZapd3+KtcNhSbhL5aAvv8lg1tYXLu3ayvljXIRbqI
eU5Bbj1gUBN1Wa8kc46PnCMz8evxtc+YdUxT/F+5pKwwPIABscJAa2emSkcIfG0L
QAGMD2ks86trEb8SzzTS+feSFY6j4oxrL/zi03TBFJaWaEfeq+KYiKyKnVOK3F+W
bciD9cFDYxnoo6UOxiAvUcZKdXtY0140KPaQJfXW9Ijkzjovrybg9hPRX9wiKwhG
y94os6fHCeA22EJVzc821h22tWlFLH6gk9Ng7Bcd3wkEELZM1vn5t4NcgR1wR0Xi
tikp7LX9g8q3aBbR2ImrCDinHf1jieY15GeKDBpjcebVdByAkMd7x04CV9LWyZzS
qLJfryhYYjulivW2KrOr1n9UuYm5zqHzof/LnaXn6ilgzXuoAN2Yqy7g6N+Jtr8T
fJhT9+4iyRic5EFM/23D0arUV9AqliGHgaxG1VnSVYS+XwPj06KyCgMxgOhx5GGO
89mY22pyL1KqPt8DuQIDAQABo4HtMIHqMAkGA1UdEwQCMAAwLAYJYIZIAYb4QgEN
BB8WHU9wZW5TU0wgR2VuZXJhdGVkIENlcnRpZmljYXRlMB0GA1UdDgQWBBRQNjer
q87aZJt5UDK2Z9dn8PfZXzCBjwYDVR0jBIGHMIGEgBR02evCbBOfH7Wn0+xO9BJ2
bbT89KFWpFQwUjELMAkGA1UEBhMCQVUxEzARBgNVBAgMClNvbWUtU3RhdGUxITAf
BgNVBAoMGEludGVybmV0IFdpZGdpdHMgUHR5IEx0ZDELMAkGA1UEAwwCZ2uCFES6
jUKpaorGtlFrz4YVm6PooYC+MA0GCSqGSIb3DQEBBAUAA4ICAQB2YaN06G3NZoG+
RARNN18fqQwnOVaKGokdlvuBCWhpsngukk1yjsbbySD2unUhvcPcPqihGumQR5eb
3liLYpJoJycM3WOx40A7NeK6k8NfpYjOLt+WOxhZFyrfsKqy9jtqyHAg5HW+NygN
l6HOD7fEStSsSQJrwwCccMHEe/0jG0Z0vcRyJiHaqVB7DiwNwDcQrPHViz+YQK9g
TGQSsg04SblAR53XtLkEjU/6L48TE4Jandu+t710oxTtdQBpi2yuv3OHqBPnUe8B
GyQ63T+5vDUsdZTQcBLu+t98TGqj84GjNbxjRXLUAAakNkH1s43226QwsRfrtr0r
E96x0qMLnDgGUek0Nr2uTFv4OMJZrredLybJbZxx6n02syibCNTvOyzw22sChLPr
IYFvck9wC2KM7UvO4BRQkuSArhtvcwtWguHHg1ZTYAB6pfMQYJz+frW+GQsUZseB
FoU4FFwARqy14SqDGNvlc6N3S1tLvkkI9YJK1XrXGbgO9g/YQ0sMz/74bcn8piz0
A8nl7Vjjt9DwUG26lcnv3fNYTNd7r/fh1hLVwwdJ74DEdRKqf9zp6YzLyYsOXZgB
TWpqeP/sGZY2Y+pkxFWAPRPtKOy1pwuE8utjK+kjP/ITrVJJmwE2brbn35chzPzj
vJjro9MoA0tp0Toxj3YiHVrMxhjmGQ==
-----END CERTIFICATE-----
