Certificate:
    Data:
        Version: 3 (0x2)
        Serial Number: 4097 (0x1001)
        Signature Algorithm: md5WithRSAEncryption
        Issuer: C=AU, ST=Some-State, O=Internet Widgits Pty Ltd, CN=gk
        Validity
            Not Before: Mar 26 01:47:29 2021 GMT
            Not After : Mar 26 01:47:29 2022 GMT
        Subject: C=AU, ST=Some-State, O=Internet Widgits Pty Ltd, CN=client
        Subject Public Key Info:
            Public Key Algorithm: rsaEncryption
                RSA Public-Key: (4096 bit)
                Modulus:
                    00:ca:46:f3:fc:b4:c2:53:81:26:b8:08:75:7c:50:
                    57:34:15:b0:67:47:71:36:27:5e:2f:3c:cb:17:26:
                    8d:81:b9:01:0b:8b:b8:86:7c:89:9f:d3:87:30:e7:
                    95:ab:3d:39:c4:04:03:74:4d:ec:f9:9f:68:b9:c6:
                    a9:91:d6:a1:e8:83:82:f1:7a:e9:fe:90:d1:ff:fa:
                    96:3e:30:8f:df:97:6e:92:6f:a9:fe:5f:b3:77:c2:
                    b1:38:a2:5a:69:2a:6d:15:c4:ed:c8:6c:fd:e1:b3:
                    cc:e0:09:54:10:99:3f:d7:1c:e7:c1:86:57:55:7f:
                    dc:7f:cc:ae:9a:9b:79:06:ed:af:ac:a1:0a:55:0b:
                    bb:f9:b8:a1:55:2b:4f:93:17:bd:8d:47:85:4a:a0:
                    4e:6d:4d:d3:5a:5e:c9:66:cd:dc:c8:1b:41:5b:d5:
                    cb:cc:40:8d:e6:24:b9:e7:9c:91:80:99:35:d8:99:
                    e5:8a:56:64:b3:47:0f:63:81:13:5b:49:bc:60:8a:
                    85:e5:41:36:29:5b:24:91:89:2e:32:50:70:04:d5:
                    12:3d:62:80:d9:35:56:d4:be:91:b3:0b:6e:5c:aa:
                    34:68:f6:d4:76:27:a1:3c:13:8e:85:48:62:e6:4c:
                    7c:92:24:54:0c:23:ec:e8:d7:62:09:16:66:26:83:
                    53:c8:3a:43:f9:6e:90:7a:09:cd:65:c9:64:b7:af:
                    f7:7d:54:2a:30:e9:0d:df:b6:cd:60:bf:ad:87:7d:
                    68:14:80:a2:ee:41:ad:35:3c:1a:0b:f5:10:16:b4:
                    f8:c6:41:9d:4c:30:94:74:b7:97:9b:78:cf:eb:f8:
                    19:d3:91:a6:27:5e:56:06:1c:0b:23:3b:dd:63:ca:
                    3d:33:f0:5c:4c:61:27:37:99:19:3e:a1:3e:9a:a4:
                    eb:99:16:14:46:f2:6a:50:4f:e1:f8:d3:ff:31:09:
                    fe:e7:ba:a7:77:d9:5c:b6:6e:2d:e8:4b:88:08:bf:
                    f9:6d:be:e4:9d:b3:53:29:ef:ba:5d:d6:07:29:08:
                    a6:d3:28:90:26:7e:f1:3b:0d:8a:a0:5e:f8:92:75:
                    a1:9b:2f:d5:4d:10:26:16:46:60:7c:14:8d:9d:a0:
                    24:20:17:56:9d:af:9e:87:1d:3e:50:eb:1d:26:a8:
                    e5:92:00:39:7f:1b:3d:d3:bb:d3:bc:dc:a7:87:52:
                    4e:21:3f:90:7f:5c:a8:15:93:0f:ac:b5:a1:0a:18:
                    03:5e:73:a2:78:d2:f1:c9:aa:ed:c4:22:41:92:f9:
                    38:1b:69:51:36:5e:99:0e:e9:73:ed:3b:bb:8c:32:
                    e3:b7:50:74:1e:01:7d:ff:fc:75:b7:ac:b0:cc:9b:
                    4e:50:b3
                Exponent: 65537 (0x10001)
        X509v3 extensions:
            X509v3 Basic Constraints: 
                CA:FALSE
            Netscape Comment: 
                OpenSSL Generated Certificate
            X509v3 Subject Key Identifier: 
                7A:32:32:03:00:5D:6A:E8:5C:34:6D:A2:E1:E4:91:6F:BA:6F:49:87
            X509v3 Authority Key Identifier: 
                keyid:74:D9:EB:C2:6C:13:9F:1F:B5:A7:D3:EC:4E:F4:12:76:6D:B4:FC:F4
                DirName:/C=AU/ST=Some-State/O=Internet Widgits Pty Ltd/CN=gk
                serial:44:BA:8D:42:A9:6A:8A:C6:B6:51:6B:CF:86:15:9B:A3:E8:A1:80:BE

    Signature Algorithm: md5WithRSAEncryption
         46:64:b7:14:da:a8:42:39:31:f5:60:de:fe:63:d5:26:3d:b3:
         7b:4d:32:ec:80:a8:52:9f:40:15:7d:b5:e4:fb:09:5b:85:54:
         97:28:4d:46:ae:00:f5:28:f9:b1:df:df:cd:44:ae:37:10:10:
         b7:0d:4e:f6:a3:ce:d6:32:c6:fe:09:a8:53:a7:d1:d1:63:fa:
         04:4a:bd:d2:20:50:c5:2a:09:df:09:fc:0f:09:c3:1c:a1:e8:
         71:d7:70:92:96:39:33:c8:74:19:b5:8c:56:af:22:72:3e:9c:
         69:d3:3b:04:ad:58:c5:b2:77:1d:22:02:40:3b:74:b6:77:11:
         6c:96:7a:d5:e7:14:7f:3c:e9:2c:69:62:e4:93:5b:27:b7:56:
         bf:8e:18:78:39:8d:d4:38:6b:de:d5:19:86:83:08:70:3c:2a:
         ec:bf:4c:fc:4d:d3:40:2d:74:44:0c:95:77:ca:06:14:0c:06:
         07:84:24:30:25:9f:02:cc:f7:c5:75:ec:8a:f2:a2:74:2d:f9:
         77:04:fe:2c:4a:e1:6a:4b:8d:1b:03:69:75:29:b8:0b:3d:3f:
         4e:a0:31:12:b5:b8:df:2b:ef:1f:29:b7:e0:7a:bb:c4:df:01:
         8e:71:e0:eb:90:d4:c2:62:81:97:f7:b9:d3:70:c2:e2:17:24:
         b5:2a:35:13:a9:e6:bd:09:f8:70:44:f9:5a:ea:ed:1b:84:1f:
         0e:4d:d3:be:66:9a:e7:9c:4e:08:f4:41:fc:f0:ac:3c:de:e9:
         e0:c6:65:83:e3:dc:96:4e:70:f3:92:b7:91:ed:cd:1a:3e:2a:
         4e:cf:1c:27:e4:69:6f:57:40:9b:a4:30:21:3c:f8:e7:0a:fd:
         37:b1:8a:ee:19:12:b7:fc:5d:5f:97:50:95:55:0b:2c:26:4c:
         d2:7c:35:87:6b:82:38:9b:e4:aa:26:4a:b0:4d:c5:e2:ba:d4:
         31:e9:30:c9:b0:29:2b:d1:06:bc:61:5a:48:27:a5:68:3e:70:
         f9:a0:70:0f:31:02:06:c7:19:ce:77:6a:b6:34:01:41:74:29:
         dd:33:e5:da:3d:4f:98:18:4c:5c:29:34:dd:3f:c2:86:ed:d7:
         b3:4a:46:ba:dd:d1:e2:0e:42:8e:d9:1b:40:d8:a1:05:cb:d6:
         ee:73:a2:89:c3:0f:fc:86:c9:f7:a0:02:fe:cc:d4:f6:de:7c:
         49:ec:87:8b:01:be:91:ec:b1:c6:88:c8:23:01:ba:e0:d0:a9:
         a9:55:f5:ec:db:f1:6b:6f:d9:40:b6:84:c7:43:57:7c:be:e1:
         aa:75:0f:c0:5d:45:13:44:d1:c5:ac:20:45:1a:02:39:c0:f1:
         c4:0c:08:ea:4f:24:de:46
-----BEGIN CERTIFICATE-----
MIIGEjCCA/qgAwIBAgICEAEwDQYJKoZIhvcNAQEEBQAwUjELMAkGA1UEBhMCQVUx
EzARBgNVBAgMClNvbWUtU3RhdGUxITAfBgNVBAoMGEludGVybmV0IFdpZGdpdHMg
UHR5IEx0ZDELMAkGA1UEAwwCZ2swHhcNMjEwMzI2MDE0NzI5WhcNMjIwMzI2MDE0
NzI5WjBWMQswCQYDVQQGEwJBVTETMBEGA1UECAwKU29tZS1TdGF0ZTEhMB8GA1UE
CgwYSW50ZXJuZXQgV2lkZ2l0cyBQdHkgTHRkMQ8wDQYDVQQDDAZjbGllbnQwggIi
MA0GCSqGSIb3DQEBAQUAA4ICDwAwggIKAoICAQDKRvP8tMJTgSa4CHV8UFc0FbBn
R3E2J14vPMsXJo2BuQELi7iGfImf04cw55WrPTnEBAN0Tez5n2i5xqmR1qHog4Lx
eun+kNH/+pY+MI/fl26Sb6n+X7N3wrE4olppKm0VxO3IbP3hs8zgCVQQmT/XHOfB
hldVf9x/zK6am3kG7a+soQpVC7v5uKFVK0+TF72NR4VKoE5tTdNaXslmzdzIG0Fb
1cvMQI3mJLnnnJGAmTXYmeWKVmSzRw9jgRNbSbxgioXlQTYpWySRiS4yUHAE1RI9
YoDZNVbUvpGzC25cqjRo9tR2J6E8E46FSGLmTHySJFQMI+zo12IJFmYmg1PIOkP5
bpB6Cc1lyWS3r/d9VCow6Q3fts1gv62HfWgUgKLuQa01PBoL9RAWtPjGQZ1MMJR0
t5ebeM/r+BnTkaYnXlYGHAsjO91jyj0z8FxMYSc3mRk+oT6apOuZFhRG8mpQT+H4
0/8xCf7nuqd32Vy2bi3oS4gIv/ltvuSds1Mp77pd1gcpCKbTKJAmfvE7DYqgXviS
daGbL9VNECYWRmB8FI2doCQgF1adr56HHT5Q6x0mqOWSADl/Gz3Tu9O83KeHUk4h
P5B/XKgVkw+staEKGANec6J40vHJqu3EIkGS+TgbaVE2XpkO6XPtO7uMMuO3UHQe
AX3//HW3rLDMm05QswIDAQABo4HtMIHqMAkGA1UdEwQCMAAwLAYJYIZIAYb4QgEN
BB8WHU9wZW5TU0wgR2VuZXJhdGVkIENlcnRpZmljYXRlMB0GA1UdDgQWBBR6MjID
AF1q6Fw0baLh5JFvum9JhzCBjwYDVR0jBIGHMIGEgBR02evCbBOfH7Wn0+xO9BJ2
bbT89KFWpFQwUjELMAkGA1UEBhMCQVUxEzARBgNVBAgMClNvbWUtU3RhdGUxITAf
BgNVBAoMGEludGVybmV0IFdpZGdpdHMgUHR5IEx0ZDELMAkGA1UEAwwCZ2uCFES6
jUKpaorGtlFrz4YVm6PooYC+MA0GCSqGSIb3DQEBBAUAA4ICAQBGZLcU2qhCOTH1
YN7+Y9UmPbN7TTLsgKhSn0AVfbXk+wlbhVSXKE1GrgD1KPmx39/NRK43EBC3DU72
o87WMsb+CahTp9HRY/oESr3SIFDFKgnfCfwPCcMcoehx13CSljkzyHQZtYxWryJy
Ppxp0zsErVjFsncdIgJAO3S2dxFslnrV5xR/POksaWLkk1snt1a/jhh4OY3UOGve
1RmGgwhwPCrsv0z8TdNALXREDJV3ygYUDAYHhCQwJZ8CzPfFdeyK8qJ0Lfl3BP4s
SuFqS40bA2l1KbgLPT9OoDEStbjfK+8fKbfgervE3wGOceDrkNTCYoGX97nTcMLi
FyS1KjUTqea9CfhwRPla6u0bhB8OTdO+ZprnnE4I9EH88Kw83ungxmWD49yWTnDz
kreR7c0aPipOzxwn5GlvV0CbpDAhPPjnCv03sYruGRK3/F1fl1CVVQssJkzSfDWH
a4I4m+SqJkqwTcXiutQx6TDJsCkr0Qa8YVpIJ6VoPnD5oHAPMQIGxxnOd2q2NAFB
dCndM+XaPU+YGExcKTTdP8KG7dezSka63dHiDkKO2RtA2KEFy9buc6KJww/8hsn3
oAL+zNT23nxJ7IeLAb6R7LHGiMgjAbrg0KmpVfXs2/Frb9lAtoTHQ1d8vuGqdQ/A
XUUTRNHFrCBFGgI5wPHEDAjqTyTeRg==
-----END CERTIFICATE-----
